target datalayout = "e-m:e-p270:32:32-p271:32:32-p272:64:64-i64:64-i128:128-f80:128-n8:16:32:64-S128"
target triple = "x86_64-pc-linux-gnu"

; Function Attrs: mustprogress nounwind uwtable
define hidden noundef i64 @_ZN20PSAdaptiveSizePolicy10scale_downEmdd(ptr noundef nonnull align 8 dereferenceable(312) %0, i64 noundef %1, double noundef %2, double noundef %3) #1 align 2 {
  %5 = alloca ptr, align 8
  %6 = alloca i64, align 8
  %7 = alloca double, align 8
  %8 = alloca double, align 8
  %9 = alloca i64, align 8
  %10 = alloca double, align 8
  store ptr %0, ptr %5, align 8
  store i64 %1, ptr %6, align 8
  store double %2, ptr %7, align 8
  store double %3, ptr %8, align 8
  %11 = load i64, ptr %6, align 8
  store i64 %11, ptr %9, align 8
  %12 = load double, ptr %8, align 8
  %13 = fcmp ogt double %12, 0.000000e+00
  br i1 %13, label %14, label %23

14:                                               ; preds = %4
  %15 = load double, ptr %7, align 8
  %16 = load double, ptr %8, align 8
  %17 = fdiv double %15, %16
  store double %17, ptr %10, align 8
  %18 = load double, ptr %10, align 8
  %19 = load i64, ptr %6, align 8
  %20 = uitofp i64 %19 to double
  %21 = fmul double %18, %20
  %22 = fptoui double %21 to i64
  store i64 %22, ptr %9, align 8
  br label %23

23:                                               ; preds = %14, %4
  %24 = load i64, ptr %9, align 8
  ret i64 %24
}