; Function Attrs: mustprogress nofree norecurse nosync nounwind willreturn memory(none) uwtable
define hidden noundef i64 @_ZN20PSAdaptiveSizePolicy10scale_downEmdd(ptr nocapture noundef nonnull readnone align 8 dereferenceable(312) %0, i64 noundef %1, double noundef %2, double noundef %3) local_unnamed_addr #2 align 2 {
  %5 = fcmp ogt double %3, 0.000000e+00
  %6 = fdiv double %2, %3
  %7 = uitofp i64 %1 to double
  %8 = fmul double %6, %7
  %9 = fptoui double %8 to i64
  %.0 = select i1 %5, i64 %9, i64 %1
  ret i64 %.0
}